target datalayout = "e-m:e-p270:32:32-p271:32:32-p272:64:64-i64:64-i128:128-f80:128-n8:16:32:64-S128"
target triple = "x86_64-pc-linux-gnu"

%"struct.llvm::TypeSetByHwMode" = type { %"struct.llvm::InfoByHwMode", i32, i32 }
%"struct.llvm::InfoByHwMode" = type { %"class.std::map" }
%"class.std::map" = type { %"class.std::_Rb_tree" }
%"class.std::_Rb_tree" = type { %"struct.std::_Rb_tree<unsigned int, std::pair<const unsigned int, llvm::MachineValueTypeSet>, std::_Select1st<std::pair<const unsigned int, llvm::MachineValueTypeSet>>, std::less<unsigned int>>::_Rb_tree_impl" }
%"struct.std::_Rb_tree<unsigned int, std::pair<const unsigned int, llvm::MachineValueTypeSet>, std::_Select1st<std::pair<const unsigned int, llvm::MachineValueTypeSet>>, std::less<unsigned int>>::_Rb_tree_impl" = type { [8 x i8], %"struct.std::_Rb_tree_header" }
%"struct.std::_Rb_tree_header" = type { %"struct.std::_Rb_tree_node_base", i64 }
%"struct.std::_Rb_tree_node_base" = type { i32, ptr, ptr, ptr }
%"struct.llvm::TypeInfer" = type { ptr, i8, i8, %"struct.llvm::TypeSetByHwMode" }
%"class.llvm::TreePattern" = type { %"class.std::vector", %"class.llvm::StringMap", ptr, %"class.std::vector.41", ptr, i8, i8, %"class.llvm::StringMap.46", %"struct.llvm::TypeInfer" }
%"class.std::vector" = type { %"struct.std::_Vector_base" }
%"struct.std::_Vector_base" = type { %"struct.std::_Vector_base<llvm::IntrusiveRefCntPtr<llvm::TreePatternNode>, std::allocator<llvm::IntrusiveRefCntPtr<llvm::TreePatternNode>>>::_Vector_impl" }
%"struct.std::_Vector_base<llvm::IntrusiveRefCntPtr<llvm::TreePatternNode>, std::allocator<llvm::IntrusiveRefCntPtr<llvm::TreePatternNode>>>::_Vector_impl" = type { %"struct.std::_Vector_base<llvm::IntrusiveRefCntPtr<llvm::TreePatternNode>, std::allocator<llvm::IntrusiveRefCntPtr<llvm::TreePatternNode>>>::_Vector_impl_data" }
%"struct.std::_Vector_base<llvm::IntrusiveRefCntPtr<llvm::TreePatternNode>, std::allocator<llvm::IntrusiveRefCntPtr<llvm::TreePatternNode>>>::_Vector_impl_data" = type { ptr, ptr, ptr }
%"class.llvm::StringMap" = type { %"class.llvm::StringMapImpl" }
%"class.llvm::StringMapImpl" = type { ptr, i32, i32, i32, i32 }
%"class.std::vector.41" = type { %"struct.std::_Vector_base.42" }
%"struct.std::_Vector_base.42" = type { %"struct.std::_Vector_base<std::__cxx11::basic_string<char>, std::allocator<std::__cxx11::basic_string<char>>>::_Vector_impl" }
%"struct.std::_Vector_base<std::__cxx11::basic_string<char>, std::allocator<std::__cxx11::basic_string<char>>>::_Vector_impl" = type { %"struct.std::_Vector_base<std::__cxx11::basic_string<char>, std::allocator<std::__cxx11::basic_string<char>>>::_Vector_impl_data" }
%"struct.std::_Vector_base<std::__cxx11::basic_string<char>, std::allocator<std::__cxx11::basic_string<char>>>::_Vector_impl_data" = type { ptr, ptr, ptr }
%"class.llvm::StringMap.46" = type { %"class.llvm::StringMapImpl" }
%"class.llvm::IntrusiveRefCntPtr" = type { ptr }
%"class.__gnu_cxx::__normal_iterator.341" = type { ptr }

; Function Attrs: mustprogress nounwind uwtable
define linkonce_odr hidden noundef nonnull align 8 dereferenceable(8) ptr @_ZNK9__gnu_cxx17__normal_iteratorIPN4llvm18IntrusiveRefCntPtrINS1_15TreePatternNodeEEESt6vectorIS4_SaIS4_EEE4baseEv(ptr noundef nonnull align 8 dereferenceable(8) %0) #0 comdat align 2 {
  %2 = alloca ptr, align 8
  store ptr %0, ptr %2, align 8
  %3 = load ptr, ptr %2, align 8
  %4 = getelementptr inbounds nuw %"class.__gnu_cxx::__normal_iterator.341", ptr %3, i32 0, i32 0
  ret ptr %4
}

; Function Attrs: mustprogress nounwind uwtable
define linkonce_odr hidden void @_ZN9__gnu_cxx17__normal_iteratorIPN4llvm18IntrusiveRefCntPtrINS1_15TreePatternNodeEEESt6vectorIS4_SaIS4_EEEC2ERKS5_(ptr noundef nonnull align 8 dereferenceable(8) %0, ptr noundef nonnull align 8 dereferenceable(8) %1) unnamed_addr #0 comdat align 2 {
  %3 = alloca ptr, align 8
  %4 = alloca ptr, align 8
  store ptr %0, ptr %3, align 8
  store ptr %1, ptr %4, align 8
  %5 = load ptr, ptr %3, align 8
  %6 = getelementptr inbounds nuw %"class.__gnu_cxx::__normal_iterator.341", ptr %5, i32 0, i32 0
  %7 = load ptr, ptr %4, align 8
  %8 = load ptr, ptr %7, align 8
  store ptr %8, ptr %6, align 8
  ret void
}

; Function Attrs: mustprogress nounwind uwtable
define linkonce_odr hidden noundef nonnull align 8 dereferenceable(8) ptr @_ZN9__gnu_cxx17__normal_iteratorIPN4llvm18IntrusiveRefCntPtrINS1_15TreePatternNodeEEESt6vectorIS4_SaIS4_EEEppEv(ptr noundef nonnull align 8 dereferenceable(8) %0) #0 comdat align 2 {
  %2 = alloca ptr, align 8
  store ptr %0, ptr %2, align 8
  %3 = load ptr, ptr %2, align 8
  %4 = getelementptr inbounds nuw %"class.__gnu_cxx::__normal_iterator.341", ptr %3, i32 0, i32 0
  %5 = load ptr, ptr %4, align 8
  %6 = getelementptr inbounds %"class.llvm::IntrusiveRefCntPtr", ptr %5, i32 1
  store ptr %6, ptr %4, align 8
  ret ptr %3
}

; Function Attrs: mustprogress nounwind uwtable
define linkonce_odr hidden noundef nonnull align 8 dereferenceable(184) ptr @_ZNK4llvm18IntrusiveRefCntPtrINS_15TreePatternNodeEEdeEv(ptr noundef nonnull align 8 dereferenceable(8) %0) #0 comdat align 2 {
  %2 = alloca ptr, align 8
  store ptr %0, ptr %2, align 8
  %3 = load ptr, ptr %2, align 8
  %4 = getelementptr inbounds nuw %"class.llvm::IntrusiveRefCntPtr", ptr %3, i32 0, i32 0
  %5 = load ptr, ptr %4, align 8
  ret ptr %5
}

; Function Attrs: mustprogress nounwind uwtable
define linkonce_odr hidden noundef nonnull align 8 dereferenceable(8) ptr @_ZNK9__gnu_cxx17__normal_iteratorIPN4llvm18IntrusiveRefCntPtrINS1_15TreePatternNodeEEESt6vectorIS4_SaIS4_EEEdeEv(ptr noundef nonnull align 8 dereferenceable(8) %0) #0 comdat align 2 {
  %2 = alloca ptr, align 8
  store ptr %0, ptr %2, align 8
  %3 = load ptr, ptr %2, align 8
  %4 = getelementptr inbounds nuw %"class.__gnu_cxx::__normal_iterator.341", ptr %3, i32 0, i32 0
  %5 = load ptr, ptr %4, align 8
  ret ptr %5
}

; Function Attrs: mustprogress nounwind uwtable
define linkonce_odr noundef zeroext i1 @_ZN9__gnu_cxxneIPN4llvm18IntrusiveRefCntPtrINS1_15TreePatternNodeEEESt6vectorIS4_SaIS4_EEEEbRKNS_17__normal_iteratorIT_T0_EESE_(ptr noundef nonnull align 8 dereferenceable(8) %0, ptr noundef nonnull align 8 dereferenceable(8) %1) #0 comdat {
  %3 = alloca ptr, align 8
  %4 = alloca ptr, align 8
  store ptr %0, ptr %3, align 8
  store ptr %1, ptr %4, align 8
  %5 = load ptr, ptr %3, align 8
  %6 = call noundef nonnull align 8 dereferenceable(8) ptr @_ZNK9__gnu_cxx17__normal_iteratorIPN4llvm18IntrusiveRefCntPtrINS1_15TreePatternNodeEEESt6vectorIS4_SaIS4_EEE4baseEv(ptr noundef nonnull align 8 dereferenceable(8) %5) #4
  %7 = load ptr, ptr %6, align 8
  %8 = load ptr, ptr %4, align 8
  %9 = call noundef nonnull align 8 dereferenceable(8) ptr @_ZNK9__gnu_cxx17__normal_iteratorIPN4llvm18IntrusiveRefCntPtrINS1_15TreePatternNodeEEESt6vectorIS4_SaIS4_EEE4baseEv(ptr noundef nonnull align 8 dereferenceable(8) %8) #4
  %10 = load ptr, ptr %9, align 8
  %11 = icmp ne ptr %7, %10
  ret i1 %11
}

; Function Attrs: mustprogress nounwind uwtable
define linkonce_odr hidden ptr @_ZNSt6vectorIN4llvm18IntrusiveRefCntPtrINS0_15TreePatternNodeEEESaIS3_EE3endEv(ptr noundef nonnull align 8 dereferenceable(24) %0) #0 comdat align 2 {
  %2 = alloca %"class.__gnu_cxx::__normal_iterator.341", align 8
  %3 = alloca ptr, align 8
  store ptr %0, ptr %3, align 8
  %4 = load ptr, ptr %3, align 8
  %5 = getelementptr inbounds nuw %"struct.std::_Vector_base", ptr %4, i32 0, i32 0
  %6 = getelementptr inbounds nuw %"struct.std::_Vector_base<llvm::IntrusiveRefCntPtr<llvm::TreePatternNode>, std::allocator<llvm::IntrusiveRefCntPtr<llvm::TreePatternNode>>>::_Vector_impl_data", ptr %5, i32 0, i32 1
  call void @_ZN9__gnu_cxx17__normal_iteratorIPN4llvm18IntrusiveRefCntPtrINS1_15TreePatternNodeEEESt6vectorIS4_SaIS4_EEEC2ERKS5_(ptr noundef nonnull align 8 dereferenceable(8) %2, ptr noundef nonnull align 8 dereferenceable(8) %6) #4
  %7 = getelementptr inbounds nuw %"class.__gnu_cxx::__normal_iterator.341", ptr %2, i32 0, i32 0
  %8 = load ptr, ptr %7, align 8
  ret ptr %8
}

; Function Attrs: mustprogress nounwind uwtable
define linkonce_odr hidden ptr @_ZNSt6vectorIN4llvm18IntrusiveRefCntPtrINS0_15TreePatternNodeEEESaIS3_EE5beginEv(ptr noundef nonnull align 8 dereferenceable(24) %0) #0 comdat align 2 {
  %2 = alloca %"class.__gnu_cxx::__normal_iterator.341", align 8
  %3 = alloca ptr, align 8
  store ptr %0, ptr %3, align 8
  %4 = load ptr, ptr %3, align 8
  %5 = getelementptr inbounds nuw %"struct.std::_Vector_base", ptr %4, i32 0, i32 0
  %6 = getelementptr inbounds nuw %"struct.std::_Vector_base<llvm::IntrusiveRefCntPtr<llvm::TreePatternNode>, std::allocator<llvm::IntrusiveRefCntPtr<llvm::TreePatternNode>>>::_Vector_impl_data", ptr %5, i32 0, i32 0
  call void @_ZN9__gnu_cxx17__normal_iteratorIPN4llvm18IntrusiveRefCntPtrINS1_15TreePatternNodeEEESt6vectorIS4_SaIS4_EEEC2ERKS5_(ptr noundef nonnull align 8 dereferenceable(8) %2, ptr noundef nonnull align 8 dereferenceable(8) %6) #4
  %7 = getelementptr inbounds nuw %"class.__gnu_cxx::__normal_iterator.341", ptr %2, i32 0, i32 0
  %8 = load ptr, ptr %7, align 8
  ret ptr %8
}

; Function Attrs: mustprogress nounwind uwtable
define dso_local void @_ZN4llvm11TreePattern17ComputeNamedNodesEv(ptr noundef nonnull align 8 dereferenceable(192) %0) #0 align 2 {
  %2 = alloca ptr, align 8
  %3 = alloca ptr, align 8
  %4 = alloca %"class.__gnu_cxx::__normal_iterator.341", align 8
  %5 = alloca %"class.__gnu_cxx::__normal_iterator.341", align 8
  %6 = alloca ptr, align 8
  store ptr %0, ptr %2, align 8
  %7 = load ptr, ptr %2, align 8
  %8 = getelementptr inbounds nuw %"class.llvm::TreePattern", ptr %7, i32 0, i32 0
  store ptr %8, ptr %3, align 8
  %9 = load ptr, ptr %3, align 8
  %10 = call ptr @_ZNSt6vectorIN4llvm18IntrusiveRefCntPtrINS0_15TreePatternNodeEEESaIS3_EE5beginEv(ptr noundef nonnull align 8 dereferenceable(24) %9) #4
  %11 = getelementptr inbounds nuw %"class.__gnu_cxx::__normal_iterator.341", ptr %4, i32 0, i32 0
  store ptr %10, ptr %11, align 8
  %12 = load ptr, ptr %3, align 8
  %13 = call ptr @_ZNSt6vectorIN4llvm18IntrusiveRefCntPtrINS0_15TreePatternNodeEEESaIS3_EE3endEv(ptr noundef nonnull align 8 dereferenceable(24) %12) #4
  %14 = getelementptr inbounds nuw %"class.__gnu_cxx::__normal_iterator.341", ptr %5, i32 0, i32 0
  store ptr %13, ptr %14, align 8
  br label %15

15:                                               ; preds = %21, %1
  %16 = call noundef zeroext i1 @_ZN9__gnu_cxxneIPN4llvm18IntrusiveRefCntPtrINS1_15TreePatternNodeEEESt6vectorIS4_SaIS4_EEEEbRKNS_17__normal_iteratorIT_T0_EESE_(ptr noundef nonnull align 8 dereferenceable(8) %4, ptr noundef nonnull align 8 dereferenceable(8) %5) #4
  br i1 %16, label %17, label %23

17:                                               ; preds = %15
  %18 = call noundef nonnull align 8 dereferenceable(8) ptr @_ZNK9__gnu_cxx17__normal_iteratorIPN4llvm18IntrusiveRefCntPtrINS1_15TreePatternNodeEEESt6vectorIS4_SaIS4_EEEdeEv(ptr noundef nonnull align 8 dereferenceable(8) %4) #4
  store ptr %18, ptr %6, align 8
  %19 = load ptr, ptr %6, align 8
  %20 = call noundef nonnull align 8 dereferenceable(184) ptr @_ZNK4llvm18IntrusiveRefCntPtrINS_15TreePatternNodeEEdeEv(ptr noundef nonnull align 8 dereferenceable(8) %19)
  call void @_ZN4llvm11TreePattern17ComputeNamedNodesERNS_15TreePatternNodeE(ptr noundef nonnull align 8 dereferenceable(192) %7, ptr noundef nonnull align 8 dereferenceable(184) %20)
  br label %21

21:                                               ; preds = %17
  %22 = call noundef nonnull align 8 dereferenceable(8) ptr @_ZN9__gnu_cxx17__normal_iteratorIPN4llvm18IntrusiveRefCntPtrINS1_15TreePatternNodeEEESt6vectorIS4_SaIS4_EEEppEv(ptr noundef nonnull align 8 dereferenceable(8) %4) #4
  br label %15

23:                                               ; preds = %15
  ret void
}