; Function Attrs: mustprogress nounwind uwtable
define dso_local void @_ZN4llvm11TreePattern17ComputeNamedNodesEv(ptr noundef nonnull align 8 dereferenceable(192) %0) local_unnamed_addr #0 align 2 {
  %2 = load ptr, ptr %0, align 8
  %3 = getelementptr inbounds nuw i8, ptr %0, i64 8
  %4 = load ptr, ptr %3, align 8
  %.not7 = icmp eq ptr %2, %4
  br i1 %.not7, label %._crit_edge, label %.lr.ph

.lr.ph:                                           ; preds = %1, %.lr.ph
  %.sroa.04.08 = phi ptr [ %6, %.lr.ph ], [ %2, %1 ]
  %5 = load ptr, ptr %.sroa.04.08, align 8
  tail call void @_ZN4llvm11TreePattern17ComputeNamedNodesERNS_15TreePatternNodeE(ptr noundef nonnull align 8 dereferenceable(192) %0, ptr noundef nonnull align 8 dereferenceable(184) %5)
  %6 = getelementptr inbounds i8, ptr %.sroa.04.08, i64 8
  %.not = icmp eq ptr %6, %4
  br i1 %.not, label %._crit_edge, label %.lr.ph

._crit_edge:                                      ; preds = %.lr.ph, %1
  ret void
}